cnumpy.core.multiarray
_reconstruct
p0
(cnumpy
ndarray
p1
(I0
tp2
S'b'
p3
tp4
Rp5
(I1
(I50
tp6
cnumpy
dtype
p7
(S'S10'
p8
I0
I1
tp9
Rp10
(I3
S'|'
p11
NNNI10
I1
I0
tp12
bI00
S'00003a70b100047059be00059477e20007a28fe7000bba053c000d5e499600100336d5001243534a0012733d1d0012806b360013592bfb001528065f0015a6e9650015f3dbc00017c79fb600183acce90018949bd3001ac13db4001ee1021c001fc91fde00202f23e5002152a50f0022b163f800234a6bd10024f517bc0025ca4eef0027c753800027f74f8c00285184ba00288dc0070028f57fc00029fb3ebf002a1c460f002bac0f54002cc78992002dd9056e002e6cc0eb002fd94c16003045288d003642bf69003868aa580039542254003991406d0039c547a7003c17c817003e231a46003e8990ab003ef1cc1e003f212b7c004060114d'
p13
tp14
b.